; Function Attrs: nounwind uwtable
define hidden i32 @SDL_MapSurfaceRGB_REAL(ptr noundef readonly captures(address_is_null) %0, i8 noundef zeroext %1, i8 noundef zeroext %2, i8 noundef zeroext %3) local_unnamed_addr #2 {
  %.not.i.i = icmp eq ptr %0, null
  br i1 %.not.i.i, label %SDL_SurfaceValid.exit.thread.i, label %SDL_SurfaceValid.exit.i

SDL_SurfaceValid.exit.i:                          ; preds = %4
  %5 = getelementptr inbounds nuw i8, ptr %0, i64 40
  %6 = load ptr, ptr %5, align 8
  %7 = icmp eq ptr %6, @SDL_surface_magic
  br i1 %7, label %9, label %SDL_SurfaceValid.exit.thread.i

SDL_SurfaceValid.exit.thread.i:                   ; preds = %SDL_SurfaceValid.exit.i, %4
  %8 = tail call zeroext i1 (ptr, ...) @SDL_SetError_REAL(ptr noundef nonnull @.str, ptr noundef nonnull @.str.5) #10
  br label %SDL_MapSurfaceRGBA_REAL.exit

9:                                                ; preds = %SDL_SurfaceValid.exit.i
  %10 = getelementptr inbounds nuw i8, ptr %0, i64 56
  %11 = load ptr, ptr %10, align 8
  %12 = getelementptr inbounds nuw i8, ptr %0, i64 72
  %13 = load ptr, ptr %12, align 8
  %14 = tail call i32 @SDL_MapRGBA_REAL(ptr noundef %11, ptr noundef %13, i8 noundef zeroext %1, i8 noundef zeroext %2, i8 noundef zeroext %3, i8 noundef zeroext -1) #10
  br label %SDL_MapSurfaceRGBA_REAL.exit

SDL_MapSurfaceRGBA_REAL.exit:                     ; preds = %SDL_SurfaceValid.exit.thread.i, %9
  %.0.i = phi i32 [ %14, %9 ], [ 1, %SDL_SurfaceValid.exit.thread.i ]
  ret i32 %.0.i
}